; ModuleID = '62/371.c'
source_filename = "62/371.c"
target datalayout = "e-m:e-p270:32:32-p271:32:32-p272:64:64-i64:64-f80:128-n8:16:32:64-S128"
target triple = "x86_64-pc-linux-gnu"

; Function Attrs: noinline nounwind uwtable
define dso_local i32 @main() #0 {
  %1 = alloca i32, align 4
  %2 = alloca [201 x i8], align 16
  %3 = alloca i32, align 4
  %4 = alloca i32, align 4
  %5 = alloca i32, align 4
  %6 = alloca i32, align 4
  store i32 0, i32* %1, align 4
  %7 = getelementptr inbounds [201 x i8], [201 x i8]* %2, i64 0, i64 0
  %8 = call i32 (i8*, ...) bitcast (i32 (...)* @gets to i32 (i8*, ...)*)(i8* %7)
  store i32 0, i32* %4, align 4
  br label %9

9:                                                ; preds = %83, %0
  %10 = load i32, i32* %4, align 4
  %11 = sext i32 %10 to i64
  %12 = getelementptr inbounds [201 x i8], [201 x i8]* %2, i64 0, i64 %11
  %13 = load i8, i8* %12, align 1
  %14 = sext i8 %13 to i32
  %15 = icmp ne i32 %14, 0
  br i1 %15, label %16, label %86

16:                                               ; preds = %9
  store i32 0, i32* %3, align 4
  %17 = load i32, i32* %4, align 4
  %18 = sext i32 %17 to i64
  %19 = getelementptr inbounds [201 x i8], [201 x i8]* %2, i64 0, i64 %18
  %20 = load i8, i8* %19, align 1
  %21 = sext i8 %20 to i32
  %22 = icmp ne i32 %21, 32
  br i1 %22, label %23, label %82

23:                                               ; preds = %16
  %24 = load i32, i32* %4, align 4
  %25 = add nsw i32 %24, 1
  %26 = sext i32 %25 to i64
  %27 = getelementptr inbounds [201 x i8], [201 x i8]* %2, i64 0, i64 %26
  %28 = load i8, i8* %27, align 1
  %29 = sext i8 %28 to i32
  %30 = icmp eq i32 %29, 32
  br i1 %30, label %31, label %82

31:                                               ; preds = %23
  %32 = load i32, i32* %4, align 4
  %33 = add nsw i32 %32, 2
  %34 = sext i32 %33 to i64
  %35 = getelementptr inbounds [201 x i8], [201 x i8]* %2, i64 0, i64 %34
  %36 = load i8, i8* %35, align 1
  %37 = sext i8 %36 to i32
  %38 = icmp eq i32 %37, 32
  br i1 %38, label %39, label %82

39:                                               ; preds = %31
  %40 = load i32, i32* %4, align 4
  %41 = add nsw i32 %40, 1
  store i32 %41, i32* %5, align 4
  br label %42

42:                                               ; preds = %52, %39
  %43 = load i32, i32* %5, align 4
  %44 = sext i32 %43 to i64
  %45 = getelementptr inbounds [201 x i8], [201 x i8]* %2, i64 0, i64 %44
  %46 = load i8, i8* %45, align 1
  %47 = sext i8 %46 to i32
  %48 = icmp eq i32 %47, 32
  br i1 %48, label %49, label %55

49:                                               ; preds = %42
  %50 = load i32, i32* %3, align 4
  %51 = add nsw i32 %50, 1
  store i32 %51, i32* %3, align 4
  br label %52

52:                                               ; preds = %49
  %53 = load i32, i32* %5, align 4
  %54 = add nsw i32 %53, 1
  store i32 %54, i32* %5, align 4
  br label %42

55:                                               ; preds = %42
  store i32 0, i32* %6, align 4
  br label %56

56:                                               ; preds = %78, %55
  %57 = load i32, i32* %6, align 4
  %58 = sext i32 %57 to i64
  %59 = getelementptr inbounds [201 x i8], [201 x i8]* %2, i64 0, i64 0
  %60 = call i64 @strlen(i8* %59) #3
  %61 = icmp ult i64 %58, %60
  br i1 %61, label %62, label %81

62:                                               ; preds = %56
  %63 = load i32, i32* %4, align 4
  %64 = add nsw i32 %63, 1
  %65 = load i32, i32* %6, align 4
  %66 = add nsw i32 %64, %65
  %67 = load i32, i32* %3, align 4
  %68 = add nsw i32 %66, %67
  %69 = sext i32 %68 to i64
  %70 = getelementptr inbounds [201 x i8], [201 x i8]* %2, i64 0, i64 %69
  %71 = load i8, i8* %70, align 1
  %72 = load i32, i32* %4, align 4
  %73 = add nsw i32 %72, 2
  %74 = load i32, i32* %6, align 4
  %75 = add nsw i32 %73, %74
  %76 = sext i32 %75 to i64
  %77 = getelementptr inbounds [201 x i8], [201 x i8]* %2, i64 0, i64 %76
  store i8 %71, i8* %77, align 1
  br label %78

78:                                               ; preds = %62
  %79 = load i32, i32* %6, align 4
  %80 = add nsw i32 %79, 1
  store i32 %80, i32* %6, align 4
  br label %56

81:                                               ; preds = %56
  br label %82

82:                                               ; preds = %81, %31, %23, %16
  br label %83

83:                                               ; preds = %82
  %84 = load i32, i32* %4, align 4
  %85 = add nsw i32 %84, 1
  store i32 %85, i32* %4, align 4
  br label %9

86:                                               ; preds = %9
  %87 = getelementptr inbounds [201 x i8], [201 x i8]* %2, i64 0, i64 0
  %88 = call i32 @puts(i8* %87)
  ret i32 0
}

declare dso_local i32 @gets(...) #1

; Function Attrs: nounwind readonly
declare dso_local i64 @strlen(i8*) #2

declare dso_local i32 @puts(i8*) #1


!llvm.module.flags = !{!0}
!llvm.ident = !{!1}

!0 = !{i32 1, !"wchar_size", i32 4}
!1 = !{!"clang version 10.0.0-4ubuntu1 "}
